target datalayout = "e-m:e-p270:32:32-p271:32:32-p272:64:64-i64:64-i128:128-f80:128-n8:16:32:64-S128"
target triple = "x86_64-pc-linux-gnu"

%struct.Abc_Frame_t_ = type { ptr, ptr, ptr, ptr, ptr, ptr, ptr, ptr, ptr, ptr, i32, i32, i32, i32, i32, ptr, float, float, i32, i32, ptr, ptr, ptr, double, double, ptr, ptr, ptr, ptr, ptr, ptr, ptr, ptr, ptr, ptr, ptr, ptr, float, ptr, i32, ptr, ptr, ptr, ptr, ptr, i32, i32, i32, i32, i32, i32, ptr, ptr, ptr, ptr, ptr, ptr, i32, i32, ptr, ptr, ptr, ptr, ptr, ptr, ptr, ptr, ptr, ptr, ptr, ptr, ptr, ptr, ptr, ptr, ptr, ptr, ptr, ptr, ptr, ptr, ptr, ptr, ptr, ptr, ptr, ptr, ptr, ptr }
%struct.Abc_Ntk_t_ = type { i32, i32, ptr, ptr, ptr, ptr, ptr, ptr, ptr, ptr, ptr, ptr, ptr, [11 x i32], i32, i32, i32, i32, ptr, i32, ptr, ptr, i32, i32, i32, double, i32, %struct.Vec_Int_t_, ptr, ptr, ptr, ptr, ptr, float, i32, ptr, ptr, ptr, ptr, ptr, ptr, ptr, ptr, ptr, ptr, ptr, ptr, ptr, ptr, ptr, ptr, ptr, ptr, ptr, ptr, ptr, ptr }
%struct.Vec_Int_t_ = type { i32, i32, ptr }

@globalUtilOptind = external global i32, align 4
@.str.39 = private unnamed_addr constant [4 x i8] c"yes\00", align 1
@.str.40 = private unnamed_addr constant [3 x i8] c"no\00", align 1
@.str.54 = private unnamed_addr constant [40 x i8] c"There is no Liberty library available.\0A\00", align 1
@.str.59 = private unnamed_addr constant [34 x i8] c"\09-h     : print the help massage\0A\00", align 1
@.str.88 = private unnamed_addr constant [30 x i8] c"There is no current network.\0A\00", align 1
@.str.89 = private unnamed_addr constant [36 x i8] c"The current network is not mapped.\0A\00", align 1
@.str.92 = private unnamed_addr constant [7 x i8] c"Xcapdh\00", align 1
@.str.93 = private unnamed_addr constant [68 x i8] c"Command line switch \22-X\22 should be followed by a positive integer.\0A\00", align 1
@.str.94 = private unnamed_addr constant [58 x i8] c"The current network is not in a topo order (run \22topo\22).\0A\00", align 1
@.str.95 = private unnamed_addr constant [33 x i8] c"usage: stime [-X num] [-capdth]\0A\00", align 1
@.str.96 = private unnamed_addr constant [46 x i8] c"\09         performs STA using Liberty library\0A\00", align 1
@.str.97 = private unnamed_addr constant [67 x i8] c"\09-X     : min Cout/Cave ratio for tree estimations [default = %d]\0A\00", align 1
@.str.98 = private unnamed_addr constant [63 x i8] c"\09-c     : toggle using wire-loads if specified [default = %s]\0A\00", align 1
@.str.99 = private unnamed_addr constant [67 x i8] c"\09-a     : display timing information for all nodes [default = %s]\0A\00", align 1
@.str.100 = private unnamed_addr constant [71 x i8] c"\09-p     : display timing information for critical path [default = %s]\0A\00", align 1
@.str.101 = private unnamed_addr constant [64 x i8] c"\09-d     : toggle dumping statistics into a file [default = %s]\0A\00", align 1

; Function Attrs: inlinehint nounwind uwtable
define internal i32 @Abc_NtkHasMapping(ptr noundef %0) #1 {
  %2 = alloca ptr, align 8
  store ptr %0, ptr %2, align 8, !tbaa !69
  %3 = load ptr, ptr %2, align 8, !tbaa !69
  %4 = getelementptr inbounds nuw %struct.Abc_Ntk_t_, ptr %3, i32 0, i32 1
  %5 = load i32, ptr %4, align 4, !tbaa !188
  %6 = icmp eq i32 %5, 4
  %7 = zext i1 %6 to i32
  ret i32 %7
}

; Function Attrs: inlinehint nounwind willreturn memory(read) uwtable
define available_externally i32 @atoi(ptr noundef nonnull %0) #7 {
  %2 = alloca ptr, align 8
  store ptr %0, ptr %2, align 8, !tbaa !56
  %3 = load ptr, ptr %2, align 8, !tbaa !56
  %4 = call i64 @strtol(ptr noundef %3, ptr noundef null, i32 noundef 10) #12
  %5 = trunc i64 %4 to i32
  ret i32 %5
}

; Function Attrs: nounwind uwtable
define internal i32 @Scl_CommandStime(ptr noundef %0, i32 noundef %1, ptr noundef %2) #0 {
  %4 = alloca i32, align 4
  %5 = alloca ptr, align 8
  %6 = alloca i32, align 4
  %7 = alloca ptr, align 8
  %8 = alloca i32, align 4
  %9 = alloca i32, align 4
  %10 = alloca i32, align 4
  %11 = alloca i32, align 4
  %12 = alloca i32, align 4
  %13 = alloca i32, align 4
  %14 = alloca i32, align 4
  store ptr %0, ptr %5, align 8, !tbaa !3
  store i32 %1, ptr %6, align 4, !tbaa !29
  store ptr %2, ptr %7, align 8, !tbaa !50
  call void @llvm.lifetime.start.p0(i64 4, ptr %8) #12
  call void @llvm.lifetime.start.p0(i64 4, ptr %9) #12
  store i32 0, ptr %9, align 4, !tbaa !29
  call void @llvm.lifetime.start.p0(i64 4, ptr %10) #12
  store i32 0, ptr %10, align 4, !tbaa !29
  call void @llvm.lifetime.start.p0(i64 4, ptr %11) #12
  store i32 0, ptr %11, align 4, !tbaa !29
  call void @llvm.lifetime.start.p0(i64 4, ptr %12) #12
  store i32 0, ptr %12, align 4, !tbaa !29
  call void @llvm.lifetime.start.p0(i64 4, ptr %13) #12
  store i32 0, ptr %13, align 4, !tbaa !29
  call void (...) @Extra_UtilGetoptReset()
  br label %15

15:                                               ; preds = %54, %3
  %16 = load i32, ptr %6, align 4, !tbaa !29
  %17 = load ptr, ptr %7, align 8, !tbaa !50
  %18 = call i32 @Extra_UtilGetopt(i32 noundef %16, ptr noundef %17, ptr noundef @.str.92)
  store i32 %18, ptr %8, align 4, !tbaa !29
  %19 = icmp ne i32 %18, -1
  br i1 %19, label %20, label %55

20:                                               ; preds = %15
  %21 = load i32, ptr %8, align 4, !tbaa !29
  switch i32 %21, label %53 [
    i32 88, label %22
    i32 99, label %40
    i32 97, label %43
    i32 112, label %46
    i32 100, label %49
    i32 104, label %52
  ]

22:                                               ; preds = %20
  %23 = load i32, ptr @globalUtilOptind, align 4, !tbaa !29
  %24 = load i32, ptr %6, align 4, !tbaa !29
  %25 = icmp sge i32 %23, %24
  br i1 %25, label %26, label %27

26:                                               ; preds = %22
  call void (i32, ptr, ...) @Abc_Print(i32 noundef -1, ptr noundef @.str.93)
  br label %105

27:                                               ; preds = %22
  %28 = load ptr, ptr %7, align 8, !tbaa !50
  %29 = load i32, ptr @globalUtilOptind, align 4, !tbaa !29
  %30 = sext i32 %29 to i64
  %31 = getelementptr inbounds ptr, ptr %28, i64 %30
  %32 = load ptr, ptr %31, align 8, !tbaa !56
  %33 = call i32 @atoi(ptr noundef %32) #14
  store i32 %33, ptr %13, align 4, !tbaa !29
  %34 = load i32, ptr @globalUtilOptind, align 4, !tbaa !29
  %35 = add nsw i32 %34, 1
  store i32 %35, ptr @globalUtilOptind, align 4, !tbaa !29
  %36 = load i32, ptr %13, align 4, !tbaa !29
  %37 = icmp slt i32 %36, 0
  br i1 %37, label %38, label %39

38:                                               ; preds = %27
  br label %105

39:                                               ; preds = %27
  br label %54

40:                                               ; preds = %20
  %41 = load i32, ptr %10, align 4, !tbaa !29
  %42 = xor i32 %41, 1
  store i32 %42, ptr %10, align 4, !tbaa !29
  br label %54

43:                                               ; preds = %20
  %44 = load i32, ptr %9, align 4, !tbaa !29
  %45 = xor i32 %44, 1
  store i32 %45, ptr %9, align 4, !tbaa !29
  br label %54

46:                                               ; preds = %20
  %47 = load i32, ptr %11, align 4, !tbaa !29
  %48 = xor i32 %47, 1
  store i32 %48, ptr %11, align 4, !tbaa !29
  br label %54

49:                                               ; preds = %20
  %50 = load i32, ptr %12, align 4, !tbaa !29
  %51 = xor i32 %50, 1
  store i32 %51, ptr %12, align 4, !tbaa !29
  br label %54

52:                                               ; preds = %20
  br label %105

53:                                               ; preds = %20
  br label %105

54:                                               ; preds = %49, %46, %43, %40, %39
  br label %15, !llvm.loop !68

55:                                               ; preds = %15
  %56 = load ptr, ptr %5, align 8, !tbaa !3
  %57 = call ptr @Abc_FrameReadNtk(ptr noundef %56)
  %58 = icmp eq ptr %57, null
  br i1 %58, label %59, label %64

59:                                               ; preds = %55
  %60 = load ptr, ptr %5, align 8, !tbaa !3
  %61 = getelementptr inbounds nuw %struct.Abc_Frame_t_, ptr %60, i32 0, i32 21
  %62 = load ptr, ptr %61, align 8, !tbaa !59
  %63 = call i32 (ptr, ptr, ...) @fprintf(ptr noundef %62, ptr noundef @.str.88) #12
  store i32 1, ptr %4, align 4
  store i32 1, ptr %14, align 4
  br label %151

64:                                               ; preds = %55
  %65 = load ptr, ptr %5, align 8, !tbaa !3
  %66 = call ptr @Abc_FrameReadNtk(ptr noundef %65)
  %67 = call i32 @Abc_NtkHasMapping(ptr noundef %66)
  %68 = icmp ne i32 %67, 0
  br i1 %68, label %74, label %69

69:                                               ; preds = %64
  %70 = load ptr, ptr %5, align 8, !tbaa !3
  %71 = getelementptr inbounds nuw %struct.Abc_Frame_t_, ptr %70, i32 0, i32 21
  %72 = load ptr, ptr %71, align 8, !tbaa !59
  %73 = call i32 (ptr, ptr, ...) @fprintf(ptr noundef %72, ptr noundef @.str.89) #12
  store i32 1, ptr %4, align 4
  store i32 1, ptr %14, align 4
  br label %151

74:                                               ; preds = %64
  %75 = load ptr, ptr %5, align 8, !tbaa !3
  %76 = call ptr @Abc_FrameReadNtk(ptr noundef %75)
  %77 = call i32 @Abc_SclCheckNtk(ptr noundef %76, i32 noundef 0)
  %78 = icmp ne i32 %77, 0
  br i1 %78, label %84, label %79

79:                                               ; preds = %74
  %80 = load ptr, ptr %5, align 8, !tbaa !3
  %81 = getelementptr inbounds nuw %struct.Abc_Frame_t_, ptr %80, i32 0, i32 21
  %82 = load ptr, ptr %81, align 8, !tbaa !59
  %83 = call i32 (ptr, ptr, ...) @fprintf(ptr noundef %82, ptr noundef @.str.94) #12
  store i32 1, ptr %4, align 4
  store i32 1, ptr %14, align 4
  br label %151

84:                                               ; preds = %74
  %85 = load ptr, ptr %5, align 8, !tbaa !3
  %86 = getelementptr inbounds nuw %struct.Abc_Frame_t_, ptr %85, i32 0, i32 34
  %87 = load ptr, ptr %86, align 8, !tbaa !58
  %88 = icmp eq ptr %87, null
  br i1 %88, label %89, label %94

89:                                               ; preds = %84
  %90 = load ptr, ptr %5, align 8, !tbaa !3
  %91 = getelementptr inbounds nuw %struct.Abc_Frame_t_, ptr %90, i32 0, i32 21
  %92 = load ptr, ptr %91, align 8, !tbaa !59
  %93 = call i32 (ptr, ptr, ...) @fprintf(ptr noundef %92, ptr noundef @.str.54) #12
  store i32 1, ptr %4, align 4
  store i32 1, ptr %14, align 4
  br label %151

94:                                               ; preds = %84
  %95 = load ptr, ptr %5, align 8, !tbaa !3
  %96 = getelementptr inbounds nuw %struct.Abc_Frame_t_, ptr %95, i32 0, i32 34
  %97 = load ptr, ptr %96, align 8, !tbaa !58
  %98 = load ptr, ptr %5, align 8, !tbaa !3
  %99 = call ptr @Abc_FrameReadNtk(ptr noundef %98)
  %100 = load i32, ptr %13, align 4, !tbaa !29
  %101 = load i32, ptr %10, align 4, !tbaa !29
  %102 = load i32, ptr %9, align 4, !tbaa !29
  %103 = load i32, ptr %11, align 4, !tbaa !29
  %104 = load i32, ptr %12, align 4, !tbaa !29
  call void @Abc_SclTimePerform(ptr noundef %97, ptr noundef %99, i32 noundef %100, i32 noundef %101, i32 noundef %102, i32 noundef %103, i32 noundef %104)
  store i32 0, ptr %4, align 4
  store i32 1, ptr %14, align 4
  br label %151

105:                                              ; preds = %53, %52, %38, %26
  %106 = load ptr, ptr %5, align 8, !tbaa !3
  %107 = getelementptr inbounds nuw %struct.Abc_Frame_t_, ptr %106, i32 0, i32 21
  %108 = load ptr, ptr %107, align 8, !tbaa !59
  %109 = call i32 (ptr, ptr, ...) @fprintf(ptr noundef %108, ptr noundef @.str.95) #12
  %110 = load ptr, ptr %5, align 8, !tbaa !3
  %111 = getelementptr inbounds nuw %struct.Abc_Frame_t_, ptr %110, i32 0, i32 21
  %112 = load ptr, ptr %111, align 8, !tbaa !59
  %113 = call i32 (ptr, ptr, ...) @fprintf(ptr noundef %112, ptr noundef @.str.96) #12
  %114 = load ptr, ptr %5, align 8, !tbaa !3
  %115 = getelementptr inbounds nuw %struct.Abc_Frame_t_, ptr %114, i32 0, i32 21
  %116 = load ptr, ptr %115, align 8, !tbaa !59
  %117 = load i32, ptr %13, align 4, !tbaa !29
  %118 = call i32 (ptr, ptr, ...) @fprintf(ptr noundef %116, ptr noundef @.str.97, i32 noundef %117) #12
  %119 = load ptr, ptr %5, align 8, !tbaa !3
  %120 = getelementptr inbounds nuw %struct.Abc_Frame_t_, ptr %119, i32 0, i32 21
  %121 = load ptr, ptr %120, align 8, !tbaa !59
  %122 = load i32, ptr %10, align 4, !tbaa !29
  %123 = icmp ne i32 %122, 0
  %124 = select i1 %123, ptr @.str.39, ptr @.str.40
  %125 = call i32 (ptr, ptr, ...) @fprintf(ptr noundef %121, ptr noundef @.str.98, ptr noundef %124) #12
  %126 = load ptr, ptr %5, align 8, !tbaa !3
  %127 = getelementptr inbounds nuw %struct.Abc_Frame_t_, ptr %126, i32 0, i32 21
  %128 = load ptr, ptr %127, align 8, !tbaa !59
  %129 = load i32, ptr %9, align 4, !tbaa !29
  %130 = icmp ne i32 %129, 0
  %131 = select i1 %130, ptr @.str.39, ptr @.str.40
  %132 = call i32 (ptr, ptr, ...) @fprintf(ptr noundef %128, ptr noundef @.str.99, ptr noundef %131) #12
  %133 = load ptr, ptr %5, align 8, !tbaa !3
  %134 = getelementptr inbounds nuw %struct.Abc_Frame_t_, ptr %133, i32 0, i32 21
  %135 = load ptr, ptr %134, align 8, !tbaa !59
  %136 = load i32, ptr %11, align 4, !tbaa !29
  %137 = icmp ne i32 %136, 0
  %138 = select i1 %137, ptr @.str.39, ptr @.str.40
  %139 = call i32 (ptr, ptr, ...) @fprintf(ptr noundef %135, ptr noundef @.str.100, ptr noundef %138) #12
  %140 = load ptr, ptr %5, align 8, !tbaa !3
  %141 = getelementptr inbounds nuw %struct.Abc_Frame_t_, ptr %140, i32 0, i32 21
  %142 = load ptr, ptr %141, align 8, !tbaa !59
  %143 = load i32, ptr %12, align 4, !tbaa !29
  %144 = icmp ne i32 %143, 0
  %145 = select i1 %144, ptr @.str.39, ptr @.str.40
  %146 = call i32 (ptr, ptr, ...) @fprintf(ptr noundef %142, ptr noundef @.str.101, ptr noundef %145) #12
  %147 = load ptr, ptr %5, align 8, !tbaa !3
  %148 = getelementptr inbounds nuw %struct.Abc_Frame_t_, ptr %147, i32 0, i32 21
  %149 = load ptr, ptr %148, align 8, !tbaa !59
  %150 = call i32 (ptr, ptr, ...) @fprintf(ptr noundef %149, ptr noundef @.str.59) #12
  store i32 1, ptr %4, align 4
  store i32 1, ptr %14, align 4
  br label %151

151:                                              ; preds = %105, %94, %89, %79, %69, %59
  call void @llvm.lifetime.end.p0(i64 4, ptr %13) #12
  call void @llvm.lifetime.end.p0(i64 4, ptr %12) #12
  call void @llvm.lifetime.end.p0(i64 4, ptr %11) #12
  call void @llvm.lifetime.end.p0(i64 4, ptr %10) #12
  call void @llvm.lifetime.end.p0(i64 4, ptr %9) #12
  call void @llvm.lifetime.end.p0(i64 4, ptr %8) #12
  %152 = load i32, ptr %4, align 4
  ret i32 %152
}