; Function Attrs: nounwind uwtable
define internal range(i32 0, 2) i32 @Scl_CommandStime(ptr noundef %0, i32 noundef %1, ptr noundef %2) #0 {
  tail call void (...) @Extra_UtilGetoptReset() #12
  br label %.outer

.outer:                                           ; preds = %19, %3
  %.044.ph = phi i32 [ %20, %19 ], [ 0, %3 ]
  %.042.ph = phi i32 [ %.042.ph116, %19 ], [ 0, %3 ]
  %.040.ph = phi i32 [ %.040.ph121, %19 ], [ 0, %3 ]
  %.038.ph = phi i32 [ %.038.ph125, %19 ], [ 0, %3 ]
  %.0.ph = phi i32 [ %.0, %19 ], [ 0, %3 ]
  br label %.outer115

.outer115:                                        ; preds = %.outer, %17
  %.042.ph116 = phi i32 [ %.042.ph, %.outer ], [ %18, %17 ]
  %.040.ph117 = phi i32 [ %.040.ph, %.outer ], [ %.040.ph121, %17 ]
  %.038.ph118 = phi i32 [ %.038.ph, %.outer ], [ %.038.ph125, %17 ]
  %.0.ph119 = phi i32 [ %.0.ph, %.outer ], [ %.0, %17 ]
  br label %.outer120

.outer120:                                        ; preds = %.outer115, %21
  %.040.ph121 = phi i32 [ %.040.ph117, %.outer115 ], [ %22, %21 ]
  %.038.ph122 = phi i32 [ %.038.ph118, %.outer115 ], [ %.038.ph125, %21 ]
  %.0.ph123 = phi i32 [ %.0.ph119, %.outer115 ], [ %.0, %21 ]
  br label %.outer124

.outer124:                                        ; preds = %.outer120, %23
  %.038.ph125 = phi i32 [ %.038.ph122, %.outer120 ], [ %24, %23 ]
  %.0.ph126 = phi i32 [ %.0.ph123, %.outer120 ], [ %.0, %23 ]
  br label %4

4:                                                ; preds = %.outer124, %9
  %.0 = phi i32 [ %14, %9 ], [ %.0.ph126, %.outer124 ]
  %5 = tail call i32 @Extra_UtilGetopt(i32 noundef %1, ptr noundef %2, ptr noundef nonnull @.str.92) #12
  switch i32 %5, label %.loopexit [
    i32 -1, label %25
    i32 88, label %6
    i32 99, label %17
    i32 97, label %19
    i32 112, label %21
    i32 100, label %23
  ]

6:                                                ; preds = %4
  %7 = load i32, ptr @globalUtilOptind, align 4, !tbaa !81
  %.not54 = icmp slt i32 %7, %1
  br i1 %.not54, label %9, label %8

8:                                                ; preds = %6
  tail call void (i32, ptr, ...) @Abc_Print(i32 noundef -1, ptr noundef nonnull @.str.93)
  br label %.loopexit

9:                                                ; preds = %6
  %10 = sext i32 %7 to i64
  %11 = getelementptr inbounds ptr, ptr %2, i64 %10
  %12 = load ptr, ptr %11, align 8, !tbaa !82
  %13 = tail call i64 @strtol(ptr noundef nonnull captures(none) %12, ptr noundef null, i32 noundef 10) #12
  %14 = trunc i64 %13 to i32
  %15 = add nsw i32 %7, 1
  store i32 %15, ptr @globalUtilOptind, align 4, !tbaa !81
  %16 = icmp slt i32 %14, 0
  br i1 %16, label %.loopexit, label %4, !llvm.loop !99

17:                                               ; preds = %4
  %18 = xor i32 %.042.ph116, 1
  br label %.outer115, !llvm.loop !99

19:                                               ; preds = %4
  %20 = xor i32 %.044.ph, 1
  br label %.outer, !llvm.loop !99

21:                                               ; preds = %4
  %22 = xor i32 %.040.ph121, 1
  br label %.outer120, !llvm.loop !99

23:                                               ; preds = %4
  %24 = xor i32 %.038.ph125, 1
  br label %.outer124, !llvm.loop !99

25:                                               ; preds = %4
  %26 = tail call ptr @Abc_FrameReadNtk(ptr noundef %0) #12
  %27 = icmp eq ptr %26, null
  br i1 %27, label %28, label %32

28:                                               ; preds = %25
  %29 = getelementptr inbounds nuw i8, ptr %0, i64 136
  %30 = load ptr, ptr %29, align 8, !tbaa !84
  %31 = tail call i64 @fwrite(ptr nonnull @.str.88, i64 29, i64 1, ptr %30)
  br label %77

32:                                               ; preds = %25
  %33 = tail call ptr @Abc_FrameReadNtk(ptr noundef %0) #12
  %34 = getelementptr i8, ptr %33, i64 4
  %.val = load i32, ptr %34, align 4, !tbaa !92
  %.not = icmp eq i32 %.val, 4
  br i1 %.not, label %39, label %35

35:                                               ; preds = %32
  %36 = getelementptr inbounds nuw i8, ptr %0, i64 136
  %37 = load ptr, ptr %36, align 8, !tbaa !84
  %38 = tail call i64 @fwrite(ptr nonnull @.str.89, i64 35, i64 1, ptr %37)
  br label %77

39:                                               ; preds = %32
  %40 = tail call ptr @Abc_FrameReadNtk(ptr noundef %0) #12
  %41 = tail call i32 @Abc_SclCheckNtk(ptr noundef %40, i32 noundef 0) #12
  %.not53 = icmp eq i32 %41, 0
  br i1 %.not53, label %42, label %46

42:                                               ; preds = %39
  %43 = getelementptr inbounds nuw i8, ptr %0, i64 136
  %44 = load ptr, ptr %43, align 8, !tbaa !84
  %45 = tail call i64 @fwrite(ptr nonnull @.str.94, i64 57, i64 1, ptr %44)
  br label %77

46:                                               ; preds = %39
  %47 = getelementptr inbounds nuw i8, ptr %0, i64 240
  %48 = load ptr, ptr %47, align 8, !tbaa !85
  %49 = icmp eq ptr %48, null
  br i1 %49, label %50, label %54

50:                                               ; preds = %46
  %51 = getelementptr inbounds nuw i8, ptr %0, i64 136
  %52 = load ptr, ptr %51, align 8, !tbaa !84
  %53 = tail call i64 @fwrite(ptr nonnull @.str.54, i64 39, i64 1, ptr %52)
  br label %77

54:                                               ; preds = %46
  %55 = tail call ptr @Abc_FrameReadNtk(ptr noundef nonnull %0) #12
  tail call void @Abc_SclTimePerform(ptr noundef nonnull %48, ptr noundef %55, i32 noundef %.0, i32 noundef %.042.ph116, i32 noundef %.044.ph, i32 noundef %.040.ph121, i32 noundef %.038.ph125) #12
  br label %77

.loopexit:                                        ; preds = %4, %9, %8
  %.1 = phi i32 [ %.0, %8 ], [ %.0, %4 ], [ %14, %9 ]
  %56 = getelementptr inbounds nuw i8, ptr %0, i64 136
  %57 = load ptr, ptr %56, align 8, !tbaa !84
  %58 = tail call i64 @fwrite(ptr nonnull @.str.95, i64 32, i64 1, ptr %57)
  %59 = load ptr, ptr %56, align 8, !tbaa !84
  %60 = tail call i64 @fwrite(ptr nonnull @.str.96, i64 45, i64 1, ptr %59)
  %61 = load ptr, ptr %56, align 8, !tbaa !84
  %62 = tail call i32 (ptr, ptr, ...) @fprintf(ptr noundef %61, ptr noundef nonnull @.str.97, i32 noundef %.1) #12
  %63 = load ptr, ptr %56, align 8, !tbaa !84
  %.not55 = icmp eq i32 %.042.ph116, 0
  %64 = select i1 %.not55, ptr @.str.40, ptr @.str.39
  %65 = tail call i32 (ptr, ptr, ...) @fprintf(ptr noundef %63, ptr noundef nonnull @.str.98, ptr noundef nonnull %64) #12
  %66 = load ptr, ptr %56, align 8, !tbaa !84
  %.not56 = icmp eq i32 %.044.ph, 0
  %67 = select i1 %.not56, ptr @.str.40, ptr @.str.39
  %68 = tail call i32 (ptr, ptr, ...) @fprintf(ptr noundef %66, ptr noundef nonnull @.str.99, ptr noundef nonnull %67) #12
  %69 = load ptr, ptr %56, align 8, !tbaa !84
  %.not57 = icmp eq i32 %.040.ph121, 0
  %70 = select i1 %.not57, ptr @.str.40, ptr @.str.39
  %71 = tail call i32 (ptr, ptr, ...) @fprintf(ptr noundef %69, ptr noundef nonnull @.str.100, ptr noundef nonnull %70) #12
  %72 = load ptr, ptr %56, align 8, !tbaa !84
  %.not58 = icmp eq i32 %.038.ph125, 0
  %73 = select i1 %.not58, ptr @.str.40, ptr @.str.39
  %74 = tail call i32 (ptr, ptr, ...) @fprintf(ptr noundef %72, ptr noundef nonnull @.str.101, ptr noundef nonnull %73) #12
  %75 = load ptr, ptr %56, align 8, !tbaa !84
  %76 = tail call i64 @fwrite(ptr nonnull @.str.59, i64 33, i64 1, ptr %75)
  br label %77

77:                                               ; preds = %.loopexit, %54, %50, %42, %35, %28
  %.046 = phi i32 [ 1, %.loopexit ], [ 1, %28 ], [ 1, %50 ], [ 0, %54 ], [ 1, %42 ], [ 1, %35 ]
  ret i32 %.046
}